; Function Attrs: mustprogress nounwind uwtable
define hidden void @_ZN11CompileTask15log_task_queuedEv(ptr nocapture noundef nonnull readonly align 8 dereferenceable(176) %0) local_unnamed_addr #0 align 2 {
  %2 = tail call noundef i64 @_ZN9ttyLocker8hold_ttyEv() #9
  %3 = tail call align 8 ptr @llvm.threadlocal.address.p0(ptr align 8 @_ZN6Thread12_thr_currentE)
  %4 = load ptr, ptr %3, align 8
  %5 = getelementptr inbounds i8, ptr %4, i64 800
  %6 = load ptr, ptr %5, align 8
  %7 = getelementptr inbounds i8, ptr %6, i64 24
  %8 = load ptr, ptr %7, align 8
  %9 = getelementptr inbounds i8, ptr %6, i64 32
  %10 = load ptr, ptr %9, align 8
  %11 = getelementptr inbounds i8, ptr %6, i64 40
  %12 = load ptr, ptr %11, align 8
  %13 = getelementptr inbounds i8, ptr %6, i64 8
  %14 = load i64, ptr %13, align 8
  %15 = load ptr, ptr @xtty, align 8
  tail call void (ptr, ptr, ...) @_ZN9xmlStream10begin_elemEPKcz(ptr noundef nonnull align 8 dereferenceable(152) %15, ptr noundef nonnull @.str.24) #9
  %16 = load ptr, ptr @xtty, align 8
  tail call void @_ZN11CompileTask8log_taskEP9xmlStream(ptr noundef nonnull align 8 dereferenceable(176) %0, ptr noundef %16)
  %17 = load ptr, ptr @xtty, align 8
  %18 = getelementptr inbounds i8, ptr %0, i64 148
  %19 = load i32, ptr %18, align 4
  %20 = zext i32 %19 to i64
  %21 = getelementptr inbounds [8 x ptr], ptr @_ZZN11CompileTask11reason_nameENS_13CompileReasonEE12reason_names, i64 0, i64 %20
  %22 = load ptr, ptr %21, align 8
  tail call void (ptr, ptr, ...) @_ZN12outputStream5printEPKcz(ptr noundef nonnull align 8 dereferenceable(56) %17, ptr noundef nonnull @.str.25, ptr noundef %22) #9
  %23 = getelementptr inbounds i8, ptr %0, i64 128
  %24 = load ptr, ptr %23, align 8
  %.not = icmp eq ptr %24, null
  %25 = getelementptr inbounds i8, ptr %0, i64 16
  %26 = load ptr, ptr %25, align 8
  %.not2 = icmp eq ptr %24, %26
  %or.cond = select i1 %.not, i1 true, i1 %.not2
  br i1 %or.cond, label %29, label %27

27:                                               ; preds = %1
  %28 = load ptr, ptr @xtty, align 8
  tail call void @_ZN9xmlStream6methodEP6Method(ptr noundef nonnull align 8 dereferenceable(152) %28, ptr noundef nonnull %24) #9
  br label %29

29:                                               ; preds = %27, %1
  %30 = getelementptr inbounds i8, ptr %0, i64 144
  %31 = load i32, ptr %30, align 8
  %.not3 = icmp eq i32 %31, 0
  br i1 %.not3, label %34, label %32

32:                                               ; preds = %29
  %33 = load ptr, ptr @xtty, align 8
  tail call void (ptr, ptr, ...) @_ZN12outputStream5printEPKcz(ptr noundef nonnull align 8 dereferenceable(56) %33, ptr noundef nonnull @.str.26, i32 noundef %31) #9
  br label %34

34:                                               ; preds = %32, %29
  %35 = load ptr, ptr @xtty, align 8
  tail call void @_ZN9xmlStream8end_elemEv(ptr noundef nonnull align 8 dereferenceable(152) %35) #9
  %36 = load ptr, ptr %8, align 8
  %.not.i.i.i.i = icmp eq ptr %36, null
  br i1 %.not.i.i.i.i, label %38, label %37

37:                                               ; preds = %34
  tail call void @_ZN5Arena17set_size_in_bytesEm(ptr noundef nonnull align 8 dereferenceable(48) %6, i64 noundef %14) #9
  tail call void @_ZN5Chunk9next_chopEPS_(ptr noundef nonnull %8) #9
  br label %38

38:                                               ; preds = %37, %34
  %39 = load ptr, ptr %9, align 8
  %.not8.i.i.i.i = icmp eq ptr %39, %10
  br i1 %.not8.i.i.i.i, label %_ZN12ResourceMarkD2Ev.exit, label %40

40:                                               ; preds = %38
  store ptr %8, ptr %7, align 8
  store ptr %10, ptr %9, align 8
  store ptr %12, ptr %11, align 8
  br label %_ZN12ResourceMarkD2Ev.exit

_ZN12ResourceMarkD2Ev.exit:                       ; preds = %38, %40
  tail call void @_ZN9ttyLocker11release_ttyEl(i64 noundef %2) #9
  ret void
}